; Function Attrs: mustprogress uwtable
define internal void @_ZNK8facebook3jsi6detail21ThreadSafeRuntimeImplINS_6hermes17HermesRuntimeImplENS3_12_GLOBAL__N_111HermesMutexEE4lockEv(ptr noundef nonnull align 8 dereferenceable(256) %this) unnamed_addr #0 align 2 {
entry:
  %lock_ = getelementptr inbounds i8, ptr %this, i64 216
  %call1.i.i.i.i = tail call noundef i32 @pthread_mutex_lock(ptr noundef nonnull %lock_) #37
  %tobool.not.i.i = icmp eq i32 %call1.i.i.i.i, 0
  br i1 %tobool.not.i.i, label %_ZN8facebook3jsi6detail8WithLockINS_6hermes17HermesRuntimeImplENS3_12_GLOBAL__N_111HermesMutexEE6beforeEv.exit, label %if.then.i.i

if.then.i.i:                                      ; preds = %entry
  tail call void @_ZSt20__throw_system_errori(i32 noundef %call1.i.i.i.i) #39
  unreachable

_ZN8facebook3jsi6detail8WithLockINS_6hermes17HermesRuntimeImplENS3_12_GLOBAL__N_111HermesMutexEE6beforeEv.exit: ; preds = %entry
  ret void
}